target datalayout = "e-m:e-p270:32:32-p271:32:32-p272:64:64-i64:64-i128:128-f80:128-n8:16:32:64-S128"
target triple = "x86_64-pc-linux-gnu"

%struct.sockaddr_storage = type { i16, [118 x i8], i64 }
%struct.sockaddr_in = type { i16, i16, %struct.in_addr, [8 x i8] }
%struct.in_addr = type { i32 }
%struct.sockaddr_in6 = type { i16, i16, i32, %struct.in6_addr, i32 }
%struct.in6_addr = type { %union.anon }
%union.anon = type { [4 x i32] }

; Function Attrs: nounwind uwtable
define internal i32 @range_sockaddr_AF_INET6(ptr noundef %0, ptr noundef %1, ptr noundef %2) #0 {
  %4 = alloca i32, align 4
  %5 = alloca ptr, align 8
  %6 = alloca ptr, align 8
  %7 = alloca ptr, align 8
  %8 = alloca i32, align 4
  %9 = alloca i32, align 4
  store ptr %0, ptr %5, align 8
  store ptr %1, ptr %6, align 8
  store ptr %2, ptr %7, align 8
  call void @llvm.lifetime.start.p0(i64 4, ptr %8) #6
  store i32 0, ptr %8, align 4
  br label %10

10:                                               ; preds = %43, %3
  %11 = load i32, ptr %8, align 4
  %12 = icmp slt i32 %11, 16
  br i1 %12, label %13, label %46

13:                                               ; preds = %10
  %14 = load ptr, ptr %5, align 8
  %15 = getelementptr inbounds nuw %struct.sockaddr_in6, ptr %14, i32 0, i32 3
  %16 = getelementptr inbounds nuw %struct.in6_addr, ptr %15, i32 0, i32 0
  %17 = load i32, ptr %8, align 4
  %18 = sext i32 %17 to i64
  %19 = getelementptr inbounds [16 x i8], ptr %16, i64 0, i64 %18
  %20 = load i8, ptr %19, align 1
  %21 = zext i8 %20 to i32
  %22 = load ptr, ptr %6, align 8
  %23 = getelementptr inbounds nuw %struct.sockaddr_in6, ptr %22, i32 0, i32 3
  %24 = getelementptr inbounds nuw %struct.in6_addr, ptr %23, i32 0, i32 0
  %25 = load i32, ptr %8, align 4
  %26 = sext i32 %25 to i64
  %27 = getelementptr inbounds [16 x i8], ptr %24, i64 0, i64 %26
  %28 = load i8, ptr %27, align 1
  %29 = zext i8 %28 to i32
  %30 = xor i32 %21, %29
  %31 = load ptr, ptr %7, align 8
  %32 = getelementptr inbounds nuw %struct.sockaddr_in6, ptr %31, i32 0, i32 3
  %33 = getelementptr inbounds nuw %struct.in6_addr, ptr %32, i32 0, i32 0
  %34 = load i32, ptr %8, align 4
  %35 = sext i32 %34 to i64
  %36 = getelementptr inbounds [16 x i8], ptr %33, i64 0, i64 %35
  %37 = load i8, ptr %36, align 1
  %38 = zext i8 %37 to i32
  %39 = and i32 %30, %38
  %40 = icmp ne i32 %39, 0
  br i1 %40, label %41, label %42

41:                                               ; preds = %13
  store i32 0, ptr %4, align 4
  store i32 1, ptr %9, align 4
  br label %47

42:                                               ; preds = %13
  br label %43

43:                                               ; preds = %42
  %44 = load i32, ptr %8, align 4
  %45 = add i32 %44, 1
  store i32 %45, ptr %8, align 4
  br label %10, !llvm.loop !4

46:                                               ; preds = %10
  store i32 1, ptr %4, align 4
  store i32 1, ptr %9, align 4
  br label %47

47:                                               ; preds = %46, %41
  call void @llvm.lifetime.end.p0(i64 4, ptr %8) #6
  %48 = load i32, ptr %4, align 4
  ret i32 %48
}

; Function Attrs: nounwind uwtable
define internal i32 @range_sockaddr_AF_INET(ptr noundef %0, ptr noundef %1, ptr noundef %2) #0 {
  %4 = alloca i32, align 4
  %5 = alloca ptr, align 8
  %6 = alloca ptr, align 8
  %7 = alloca ptr, align 8
  store ptr %0, ptr %5, align 8
  store ptr %1, ptr %6, align 8
  store ptr %2, ptr %7, align 8
  %8 = load ptr, ptr %5, align 8
  %9 = getelementptr inbounds nuw %struct.sockaddr_in, ptr %8, i32 0, i32 2
  %10 = getelementptr inbounds nuw %struct.in_addr, ptr %9, i32 0, i32 0
  %11 = load i32, ptr %10, align 4
  %12 = load ptr, ptr %6, align 8
  %13 = getelementptr inbounds nuw %struct.sockaddr_in, ptr %12, i32 0, i32 2
  %14 = getelementptr inbounds nuw %struct.in_addr, ptr %13, i32 0, i32 0
  %15 = load i32, ptr %14, align 4
  %16 = xor i32 %11, %15
  %17 = load ptr, ptr %7, align 8
  %18 = getelementptr inbounds nuw %struct.sockaddr_in, ptr %17, i32 0, i32 2
  %19 = getelementptr inbounds nuw %struct.in_addr, ptr %18, i32 0, i32 0
  %20 = load i32, ptr %19, align 4
  %21 = and i32 %16, %20
  %22 = icmp eq i32 %21, 0
  br i1 %22, label %23, label %24

23:                                               ; preds = %3
  store i32 1, ptr %4, align 4
  br label %25

24:                                               ; preds = %3
  store i32 0, ptr %4, align 4
  br label %25

25:                                               ; preds = %24, %23
  %26 = load i32, ptr %4, align 4
  ret i32 %26
}

; Function Attrs: nounwind uwtable
define dso_local i32 @pg_range_sockaddr(ptr noundef %0, ptr noundef %1, ptr noundef %2) #0 {
  %4 = alloca i32, align 4
  %5 = alloca ptr, align 8
  %6 = alloca ptr, align 8
  %7 = alloca ptr, align 8
  store ptr %0, ptr %5, align 8
  store ptr %1, ptr %6, align 8
  store ptr %2, ptr %7, align 8
  %8 = load ptr, ptr %5, align 8
  %9 = getelementptr inbounds nuw %struct.sockaddr_storage, ptr %8, i32 0, i32 0
  %10 = load i16, ptr %9, align 8
  %11 = zext i16 %10 to i32
  %12 = icmp eq i32 %11, 2
  br i1 %12, label %13, label %18

13:                                               ; preds = %3
  %14 = load ptr, ptr %5, align 8
  %15 = load ptr, ptr %6, align 8
  %16 = load ptr, ptr %7, align 8
  %17 = call i32 @range_sockaddr_AF_INET(ptr noundef %14, ptr noundef %15, ptr noundef %16)
  store i32 %17, ptr %4, align 4
  br label %30

18:                                               ; preds = %3
  %19 = load ptr, ptr %5, align 8
  %20 = getelementptr inbounds nuw %struct.sockaddr_storage, ptr %19, i32 0, i32 0
  %21 = load i16, ptr %20, align 8
  %22 = zext i16 %21 to i32
  %23 = icmp eq i32 %22, 10
  br i1 %23, label %24, label %29

24:                                               ; preds = %18
  %25 = load ptr, ptr %5, align 8
  %26 = load ptr, ptr %6, align 8
  %27 = load ptr, ptr %7, align 8
  %28 = call i32 @range_sockaddr_AF_INET6(ptr noundef %25, ptr noundef %26, ptr noundef %27)
  store i32 %28, ptr %4, align 4
  br label %30

29:                                               ; preds = %18
  store i32 0, ptr %4, align 4
  br label %30

30:                                               ; preds = %29, %24, %13
  %31 = load i32, ptr %4, align 4
  ret i32 %31
}