; Function Attrs: nofree norecurse nosync nounwind memory(argmem: read) uwtable
define dso_local range(i32 0, 2) i32 @pg_range_sockaddr(ptr noundef readonly captures(none) %0, ptr noundef readonly captures(none) %1, ptr noundef readonly captures(none) %2) local_unnamed_addr #0 {
  %4 = load i16, ptr %0, align 8
  switch i16 %4, label %range_sockaddr_AF_INET6.exit [
    i16 2, label %5
    i16 10, label %12
  ]

5:                                                ; preds = %3
  %6 = getelementptr i8, ptr %0, i64 4
  %.val = load i32, ptr %6, align 4
  %7 = getelementptr i8, ptr %1, i64 4
  %.val9 = load i32, ptr %7, align 4
  %8 = getelementptr i8, ptr %2, i64 4
  %.val10 = load i32, ptr %8, align 4
  %9 = xor i32 %.val9, %.val
  %10 = and i32 %9, %.val10
  %11 = icmp eq i32 %10, 0
  %..i = zext i1 %11 to i32
  br label %range_sockaddr_AF_INET6.exit

12:                                               ; preds = %3
  %13 = getelementptr inbounds nuw i8, ptr %0, i64 8
  %14 = getelementptr inbounds nuw i8, ptr %1, i64 8
  %15 = getelementptr inbounds nuw i8, ptr %2, i64 8
  br label %17

16:                                               ; preds = %17
  %indvars.iv.next.i = add nuw nsw i64 %indvars.iv.i, 1
  %exitcond.not.i = icmp eq i64 %indvars.iv.next.i, 16
  br i1 %exitcond.not.i, label %range_sockaddr_AF_INET6.exit, label %17, !llvm.loop !4

17:                                               ; preds = %16, %12
  %indvars.iv.i = phi i64 [ 0, %12 ], [ %indvars.iv.next.i, %16 ]
  %18 = getelementptr inbounds nuw [16 x i8], ptr %13, i64 0, i64 %indvars.iv.i
  %19 = load i8, ptr %18, align 1
  %20 = getelementptr inbounds nuw [16 x i8], ptr %14, i64 0, i64 %indvars.iv.i
  %21 = load i8, ptr %20, align 1
  %22 = xor i8 %21, %19
  %23 = getelementptr inbounds nuw [16 x i8], ptr %15, i64 0, i64 %indvars.iv.i
  %24 = load i8, ptr %23, align 1
  %25 = and i8 %22, %24
  %.not.i = icmp eq i8 %25, 0
  br i1 %.not.i, label %16, label %range_sockaddr_AF_INET6.exit

range_sockaddr_AF_INET6.exit:                     ; preds = %17, %16, %3, %5
  %.0 = phi i32 [ %..i, %5 ], [ 0, %3 ], [ 1, %16 ], [ 0, %17 ]
  ret i32 %.0
}